target datalayout = "e-m:e-p270:32:32-p271:32:32-p272:64:64-i64:64-i128:128-f80:128-n8:16:32:64-S128"
target triple = "x86_64-pc-linux-gnu"

%struct.b2Vec2 = type { float, float }
%struct.b2ChainShapeArray = type { ptr, i32, i32 }
%struct.b2ShapeArray = type { ptr, i32, i32 }
%struct.b2Filter = type { i64, i64, i32 }
%struct.b2Shape = type { i32, i32, i32, i32, i32, i32, float, float, float, float, float, i32, %struct.b2AABB, %struct.b2AABB, %struct.b2Vec2, i32, %struct.b2Filter, ptr, i32, %union.anon.0, i16, i8, i8, i8, i8 }
%struct.b2AABB = type { %struct.b2Vec2, %struct.b2Vec2 }
%union.anon.0 = type { %struct.b2Polygon }
%struct.b2Polygon = type { [8 x %struct.b2Vec2], [8 x %struct.b2Vec2], %struct.b2Vec2, float, i32 }
%struct.b2World = type { %struct.b2ArenaAllocator, %struct.b2BroadPhase, %struct.b2ConstraintGraph, %struct.b2IdPool, %struct.b2BodyArray, %struct.b2IdPool, %struct.b2SolverSetArray, %struct.b2IdPool, %struct.b2JointArray, %struct.b2IdPool, %struct.b2ContactArray, %struct.b2IdPool, %struct.b2IslandArray, %struct.b2IdPool, %struct.b2IdPool, %struct.b2ShapeArray, %struct.b2ChainShapeArray, %struct.b2SensorArray, %struct.b2TaskContextArray, %struct.b2SensorTaskContextArray, %struct.b2BodyMoveEventArray, %struct.b2SensorBeginTouchEventArray, %struct.b2ContactBeginTouchEventArray, [2 x %struct.b2SensorEndTouchEventArray], [2 x %struct.b2ContactEndTouchEventArray], i32, %struct.b2ContactHitEventArray, %struct.b2BitSet, %struct.b2BitSet, %struct.b2BitSet, i64, i32, %struct.b2Vec2, float, float, float, float, float, float, float, float, ptr, ptr, i16, %struct.b2Profile, ptr, ptr, ptr, ptr, i32, ptr, ptr, ptr, ptr, ptr, float, i32, i32, i16, i8, i8, i8, i8, i8, i8 }
%struct.b2ArenaAllocator = type { ptr, i32, i32, i32, i32, %struct.b2ArenaEntryArray }
%struct.b2ArenaEntryArray = type { ptr, i32, i32 }
%struct.b2BroadPhase = type { [3 x %struct.b2DynamicTree], i32, %struct.b2HashSet, %struct.b2IntArray, ptr, ptr, i32, %struct.b2AtomicInt, %struct.b2HashSet }
%struct.b2DynamicTree = type { ptr, i32, i32, i32, i32, i32, ptr, ptr, ptr, ptr, i32 }
%struct.b2IntArray = type { ptr, i32, i32 }
%struct.b2AtomicInt = type { i32 }
%struct.b2HashSet = type { ptr, i32, i32 }
%struct.b2ConstraintGraph = type { [12 x %struct.b2GraphColor] }
%struct.b2GraphColor = type { %struct.b2BitSet, %struct.b2ContactSimArray, %struct.b2JointSimArray, %union.anon }
%struct.b2ContactSimArray = type { ptr, i32, i32 }
%struct.b2JointSimArray = type { ptr, i32, i32 }
%union.anon = type { ptr }
%struct.b2BodyArray = type { ptr, i32, i32 }
%struct.b2SolverSetArray = type { ptr, i32, i32 }
%struct.b2JointArray = type { ptr, i32, i32 }
%struct.b2ContactArray = type { ptr, i32, i32 }
%struct.b2IslandArray = type { ptr, i32, i32 }
%struct.b2IdPool = type { %struct.b2IntArray, i32 }
%struct.b2SensorArray = type { ptr, i32, i32 }
%struct.b2TaskContextArray = type { ptr, i32, i32 }
%struct.b2SensorTaskContextArray = type { ptr, i32, i32 }
%struct.b2BodyMoveEventArray = type { ptr, i32, i32 }
%struct.b2SensorBeginTouchEventArray = type { ptr, i32, i32 }
%struct.b2ContactBeginTouchEventArray = type { ptr, i32, i32 }
%struct.b2SensorEndTouchEventArray = type { ptr, i32, i32 }
%struct.b2ContactEndTouchEventArray = type { ptr, i32, i32 }
%struct.b2ContactHitEventArray = type { ptr, i32, i32 }
%struct.b2BitSet = type { ptr, i32, i32 }
%struct.b2Profile = type { float, float, float, float, float, float, float, float, float, float, float, float, float, float, float, float, float, float, float, float, float, float }
%struct.b2Body = type { [32 x i8], ptr, i32, i32, i32, i32, i32, i32, i32, i32, i32, i32, i32, i32, float, float, float, float, i32, i32, i32, i16, i8, i8, i8, i8 }
%struct.b2ChainId = type { i32, i16, i16 }
%struct.b2ChainShape = type { i32, i32, i32, i32, i32, ptr, ptr, i16 }

; Function Attrs: inlinehint nounwind uwtable
define internal ptr @b2ChainShapeArray_Get(ptr noundef %0, i32 noundef %1) #7 {
  %3 = alloca ptr, align 8
  %4 = alloca i32, align 4
  store ptr %0, ptr %3, align 8, !tbaa !12
  store i32 %1, ptr %4, align 4, !tbaa !3
  %5 = load ptr, ptr %3, align 8, !tbaa !12
  %6 = getelementptr inbounds nuw %struct.b2ChainShapeArray, ptr %5, i32 0, i32 0
  %7 = load ptr, ptr %6, align 8, !tbaa !7
  %8 = load i32, ptr %4, align 4, !tbaa !3
  %9 = sext i32 %8 to i64
  %10 = getelementptr inbounds %struct.b2ChainShape, ptr %7, i64 %9
  ret ptr %10
}

; Function Attrs: nounwind uwtable
define hidden void @b2FreeChainData(ptr noundef %0) #0 {
  %2 = alloca ptr, align 8
  store ptr %0, ptr %2, align 8, !tbaa !143
  %3 = load ptr, ptr %2, align 8, !tbaa !143
  %4 = getelementptr inbounds nuw %struct.b2ChainShape, ptr %3, i32 0, i32 5
  %5 = load ptr, ptr %4, align 8, !tbaa !172
  %6 = load ptr, ptr %2, align 8, !tbaa !143
  %7 = getelementptr inbounds nuw %struct.b2ChainShape, ptr %6, i32 0, i32 3
  %8 = load i32, ptr %7, align 4, !tbaa !171
  %9 = sext i32 %8 to i64
  %10 = mul i64 %9, 4
  %11 = trunc i64 %10 to i32
  call void @b2Free(ptr noundef %5, i32 noundef %11)
  %12 = load ptr, ptr %2, align 8, !tbaa !143
  %13 = getelementptr inbounds nuw %struct.b2ChainShape, ptr %12, i32 0, i32 5
  store ptr null, ptr %13, align 8, !tbaa !172
  %14 = load ptr, ptr %2, align 8, !tbaa !143
  %15 = getelementptr inbounds nuw %struct.b2ChainShape, ptr %14, i32 0, i32 6
  %16 = load ptr, ptr %15, align 8, !tbaa !156
  %17 = load ptr, ptr %2, align 8, !tbaa !143
  %18 = getelementptr inbounds nuw %struct.b2ChainShape, ptr %17, i32 0, i32 4
  %19 = load i32, ptr %18, align 8, !tbaa !155
  %20 = sext i32 %19 to i64
  %21 = mul i64 %20, 24
  %22 = trunc i64 %21 to i32
  call void @b2Free(ptr noundef %16, i32 noundef %22)
  %23 = load ptr, ptr %2, align 8, !tbaa !143
  %24 = getelementptr inbounds nuw %struct.b2ChainShape, ptr %23, i32 0, i32 6
  store ptr null, ptr %24, align 8, !tbaa !156
  ret void
}

; Function Attrs: inlinehint nounwind uwtable
define internal ptr @b2ShapeArray_Get(ptr noundef %0, i32 noundef %1) #7 {
  %3 = alloca ptr, align 8
  %4 = alloca i32, align 4
  store ptr %0, ptr %3, align 8, !tbaa !12
  store i32 %1, ptr %4, align 4, !tbaa !3
  %5 = load ptr, ptr %3, align 8, !tbaa !12
  %6 = getelementptr inbounds nuw %struct.b2ShapeArray, ptr %5, i32 0, i32 0
  %7 = load ptr, ptr %6, align 8, !tbaa !14
  %8 = load i32, ptr %4, align 4, !tbaa !3
  %9 = sext i32 %8 to i64
  %10 = getelementptr inbounds %struct.b2Shape, ptr %7, i64 %9
  ret ptr %10
}

; Function Attrs: inlinehint nounwind uwtable
define internal ptr @b2BodyArray_Get(ptr noundef %0, i32 noundef %1) #7 {
  %3 = alloca ptr, align 8
  %4 = alloca i32, align 4
  store ptr %0, ptr %3, align 8, !tbaa !12
  store i32 %1, ptr %4, align 4, !tbaa !3
  %5 = load ptr, ptr %3, align 8, !tbaa !12
  %6 = getelementptr inbounds nuw %struct.b2BodyArray, ptr %5, i32 0, i32 0
  %7 = load ptr, ptr %6, align 8, !tbaa !65
  %8 = load i32, ptr %4, align 4, !tbaa !3
  %9 = sext i32 %8 to i64
  %10 = getelementptr inbounds %struct.b2Body, ptr %7, i64 %9
  ret ptr %10
}

; Function Attrs: nounwind uwtable
define internal ptr @b2GetChainShape(ptr noundef %0, i64 %1) #0 {
  %3 = alloca %struct.b2ChainId, align 4
  %4 = alloca ptr, align 8
  %5 = alloca i32, align 4
  %6 = alloca ptr, align 8
  store i64 %1, ptr %3, align 4
  store ptr %0, ptr %4, align 8, !tbaa !26
  call void @llvm.lifetime.start.p0(i64 4, ptr %5) #9
  %7 = getelementptr inbounds nuw %struct.b2ChainId, ptr %3, i32 0, i32 0
  %8 = load i32, ptr %7, align 4, !tbaa !138
  %9 = sub nsw i32 %8, 1
  store i32 %9, ptr %5, align 4, !tbaa !3
  call void @llvm.lifetime.start.p0(i64 8, ptr %6) #9
  %10 = load ptr, ptr %4, align 8, !tbaa !26
  %11 = getelementptr inbounds nuw %struct.b2World, ptr %10, i32 0, i32 16
  %12 = load i32, ptr %5, align 4, !tbaa !3
  %13 = call ptr @b2ChainShapeArray_Get(ptr noundef %11, i32 noundef %12)
  store ptr %13, ptr %6, align 8, !tbaa !143
  %14 = load ptr, ptr %6, align 8, !tbaa !143
  call void @llvm.lifetime.end.p0(i64 8, ptr %6) #9
  call void @llvm.lifetime.end.p0(i64 4, ptr %5) #9
  ret ptr %14
}

; Function Attrs: nounwind uwtable
define void @b2DestroyChain(i64 %0) #0 {
  %2 = alloca %struct.b2ChainId, align 4
  %3 = alloca ptr, align 8
  %4 = alloca i32, align 4
  %5 = alloca ptr, align 8
  %6 = alloca i8, align 1
  %7 = alloca ptr, align 8
  %8 = alloca ptr, align 8
  %9 = alloca i8, align 1
  %10 = alloca i32, align 4
  %11 = alloca i32, align 4
  %12 = alloca i32, align 4
  %13 = alloca ptr, align 8
  store i64 %0, ptr %2, align 4
  call void @llvm.lifetime.start.p0(i64 8, ptr %3) #9
  %14 = getelementptr inbounds nuw %struct.b2ChainId, ptr %2, i32 0, i32 1
  %15 = load i16, ptr %14, align 4, !tbaa !140
  %16 = zext i16 %15 to i32
  %17 = call ptr @b2GetWorldLocked(i32 noundef %16)
  store ptr %17, ptr %3, align 8, !tbaa !26
  %18 = load ptr, ptr %3, align 8, !tbaa !26
  %19 = icmp eq ptr %18, null
  br i1 %19, label %20, label %21

20:                                               ; preds = %1
  store i32 1, ptr %4, align 4
  br label %105

21:                                               ; preds = %1
  call void @llvm.lifetime.start.p0(i64 8, ptr %5) #9
  %22 = load ptr, ptr %3, align 8, !tbaa !26
  %23 = load i64, ptr %2, align 4
  %24 = call ptr @b2GetChainShape(ptr noundef %22, i64 %23)
  store ptr %24, ptr %5, align 8, !tbaa !143
  call void @llvm.lifetime.start.p0(i64 1, ptr %6) #9
  store i8 1, ptr %6, align 1, !tbaa !63
  call void @llvm.lifetime.start.p0(i64 8, ptr %7) #9
  %25 = load ptr, ptr %3, align 8, !tbaa !26
  %26 = getelementptr inbounds nuw %struct.b2World, ptr %25, i32 0, i32 4
  %27 = load ptr, ptr %5, align 8, !tbaa !143
  %28 = getelementptr inbounds nuw %struct.b2ChainShape, ptr %27, i32 0, i32 1
  %29 = load i32, ptr %28, align 4, !tbaa !148
  %30 = call ptr @b2BodyArray_Get(ptr noundef %26, i32 noundef %29)
  store ptr %30, ptr %7, align 8, !tbaa !32
  call void @llvm.lifetime.start.p0(i64 8, ptr %8) #9
  %31 = load ptr, ptr %7, align 8, !tbaa !32
  %32 = getelementptr inbounds nuw %struct.b2Body, ptr %31, i32 0, i32 8
  store ptr %32, ptr %8, align 8, !tbaa !193
  call void @llvm.lifetime.start.p0(i64 1, ptr %9) #9
  store i8 0, ptr %9, align 1, !tbaa !63
  br label %33

33:                                               ; preds = %49, %21
  %34 = load ptr, ptr %8, align 8, !tbaa !193
  %35 = load i32, ptr %34, align 4, !tbaa !3
  %36 = icmp ne i32 %35, -1
  br i1 %36, label %37, label %59

37:                                               ; preds = %33
  %38 = load ptr, ptr %8, align 8, !tbaa !193
  %39 = load i32, ptr %38, align 4, !tbaa !3
  %40 = load ptr, ptr %5, align 8, !tbaa !143
  %41 = getelementptr inbounds nuw %struct.b2ChainShape, ptr %40, i32 0, i32 0
  %42 = load i32, ptr %41, align 8, !tbaa !144
  %43 = icmp eq i32 %39, %42
  br i1 %43, label %44, label %49

44:                                               ; preds = %37
  %45 = load ptr, ptr %5, align 8, !tbaa !143
  %46 = getelementptr inbounds nuw %struct.b2ChainShape, ptr %45, i32 0, i32 2
  %47 = load i32, ptr %46, align 8, !tbaa !150
  %48 = load ptr, ptr %8, align 8, !tbaa !193
  store i32 %47, ptr %48, align 4, !tbaa !3
  store i8 1, ptr %9, align 1, !tbaa !63
  br label %59

49:                                               ; preds = %37
  %50 = load ptr, ptr %3, align 8, !tbaa !26
  %51 = getelementptr inbounds nuw %struct.b2World, ptr %50, i32 0, i32 16
  %52 = getelementptr inbounds nuw %struct.b2ChainShapeArray, ptr %51, i32 0, i32 0
  %53 = load ptr, ptr %52, align 8, !tbaa !222
  %54 = load ptr, ptr %8, align 8, !tbaa !193
  %55 = load i32, ptr %54, align 4, !tbaa !3
  %56 = sext i32 %55 to i64
  %57 = getelementptr inbounds %struct.b2ChainShape, ptr %53, i64 %56
  %58 = getelementptr inbounds nuw %struct.b2ChainShape, ptr %57, i32 0, i32 2
  store ptr %58, ptr %8, align 8, !tbaa !193
  br label %33, !llvm.loop !223

59:                                               ; preds = %44, %33
  %60 = load i8, ptr %9, align 1, !tbaa !63, !range !41, !noundef !42
  %61 = trunc i8 %60 to i1
  %62 = zext i1 %61 to i32
  %63 = icmp eq i32 %62, 0
  br i1 %63, label %64, label %65

64:                                               ; preds = %59
  store i32 1, ptr %4, align 4
  br label %104

65:                                               ; preds = %59
  call void @llvm.lifetime.start.p0(i64 4, ptr %10) #9
  %66 = load ptr, ptr %5, align 8, !tbaa !143
  %67 = getelementptr inbounds nuw %struct.b2ChainShape, ptr %66, i32 0, i32 3
  %68 = load i32, ptr %67, align 4, !tbaa !171
  store i32 %68, ptr %10, align 4, !tbaa !3
  call void @llvm.lifetime.start.p0(i64 4, ptr %11) #9
  store i32 0, ptr %11, align 4, !tbaa !3
  br label %69

69:                                               ; preds = %91, %65
  %70 = load i32, ptr %11, align 4, !tbaa !3
  %71 = load i32, ptr %10, align 4, !tbaa !3
  %72 = icmp slt i32 %70, %71
  br i1 %72, label %74, label %73

73:                                               ; preds = %69
  store i32 4, ptr %4, align 4
  call void @llvm.lifetime.end.p0(i64 4, ptr %11) #9
  br label %94

74:                                               ; preds = %69
  call void @llvm.lifetime.start.p0(i64 4, ptr %12) #9
  %75 = load ptr, ptr %5, align 8, !tbaa !143
  %76 = getelementptr inbounds nuw %struct.b2ChainShape, ptr %75, i32 0, i32 5
  %77 = load ptr, ptr %76, align 8, !tbaa !172
  %78 = load i32, ptr %11, align 4, !tbaa !3
  %79 = sext i32 %78 to i64
  %80 = getelementptr inbounds i32, ptr %77, i64 %79
  %81 = load i32, ptr %80, align 4, !tbaa !3
  store i32 %81, ptr %12, align 4, !tbaa !3
  call void @llvm.lifetime.start.p0(i64 8, ptr %13) #9
  %82 = load ptr, ptr %3, align 8, !tbaa !26
  %83 = getelementptr inbounds nuw %struct.b2World, ptr %82, i32 0, i32 15
  %84 = load i32, ptr %12, align 4, !tbaa !3
  %85 = call ptr @b2ShapeArray_Get(ptr noundef %83, i32 noundef %84)
  store ptr %85, ptr %13, align 8, !tbaa !34
  %86 = load ptr, ptr %3, align 8, !tbaa !26
  %87 = load ptr, ptr %13, align 8, !tbaa !34
  %88 = load ptr, ptr %7, align 8, !tbaa !32
  %89 = load i8, ptr %6, align 1, !tbaa !63, !range !41, !noundef !42
  %90 = trunc i8 %89 to i1
  call void @b2DestroyShapeInternal(ptr noundef %86, ptr noundef %87, ptr noundef %88, i1 noundef zeroext %90)
  call void @llvm.lifetime.end.p0(i64 8, ptr %13) #9
  call void @llvm.lifetime.end.p0(i64 4, ptr %12) #9
  br label %91

91:                                               ; preds = %74
  %92 = load i32, ptr %11, align 4, !tbaa !3
  %93 = add nsw i32 %92, 1
  store i32 %93, ptr %11, align 4, !tbaa !3
  br label %69, !llvm.loop !224

94:                                               ; preds = %73
  %95 = load ptr, ptr %5, align 8, !tbaa !143
  call void @b2FreeChainData(ptr noundef %95)
  %96 = load ptr, ptr %3, align 8, !tbaa !26
  %97 = getelementptr inbounds nuw %struct.b2World, ptr %96, i32 0, i32 14
  %98 = load ptr, ptr %5, align 8, !tbaa !143
  %99 = getelementptr inbounds nuw %struct.b2ChainShape, ptr %98, i32 0, i32 0
  %100 = load i32, ptr %99, align 8, !tbaa !144
  call void @b2FreeId(ptr noundef %97, i32 noundef %100)
  %101 = load ptr, ptr %5, align 8, !tbaa !143
  %102 = getelementptr inbounds nuw %struct.b2ChainShape, ptr %101, i32 0, i32 0
  store i32 -1, ptr %102, align 8, !tbaa !144
  %103 = load ptr, ptr %3, align 8, !tbaa !26
  call void @b2ValidateSolverSets(ptr noundef %103)
  call void @llvm.lifetime.end.p0(i64 4, ptr %10) #9
  store i32 0, ptr %4, align 4
  br label %104

104:                                              ; preds = %94, %64
  call void @llvm.lifetime.end.p0(i64 1, ptr %9) #9
  call void @llvm.lifetime.end.p0(i64 8, ptr %8) #9
  call void @llvm.lifetime.end.p0(i64 8, ptr %7) #9
  call void @llvm.lifetime.end.p0(i64 1, ptr %6) #9
  call void @llvm.lifetime.end.p0(i64 8, ptr %5) #9
  br label %105

105:                                              ; preds = %104, %20
  call void @llvm.lifetime.end.p0(i64 8, ptr %3) #9
  %106 = load i32, ptr %4, align 4
  switch i32 %106, label %108 [
    i32 0, label %107
    i32 1, label %107
  ]

107:                                              ; preds = %105, %105
  ret void

108:                                              ; preds = %105
  unreachable
}