; Function Attrs: nounwind uwtable
define void @b2DestroyChain(i64 %0) local_unnamed_addr #0 {
  %.sroa.2.0.extract.shift = lshr i64 %0, 32
  %2 = trunc nuw i64 %.sroa.2.0.extract.shift to i32
  %3 = and i32 %2, 65535
  %4 = tail call ptr @b2GetWorldLocked(i32 noundef %3) #10
  %5 = icmp eq ptr %4, null
  br i1 %5, label %.critedge, label %6

6:                                                ; preds = %1
  %7 = getelementptr i8, ptr %4, i64 1272
  %.val34 = load ptr, ptr %7, align 8, !tbaa !10
  %8 = shl i64 %0, 32
  %sext.i = add i64 %8, -4294967296
  %9 = ashr exact i64 %sext.i, 32
  %10 = getelementptr inbounds %struct.b2ChainShape, ptr %.val34, i64 %9
  %11 = getelementptr inbounds nuw i8, ptr %4, i64 1032
  %12 = getelementptr inbounds nuw i8, ptr %10, i64 4
  %13 = load i32, ptr %12, align 4, !tbaa !122
  %.val33 = load ptr, ptr %11, align 8, !tbaa !35
  %14 = sext i32 %13 to i64
  %15 = getelementptr inbounds %struct.b2Body, ptr %.val33, i64 %14
  %16 = getelementptr inbounds nuw i8, ptr %15, i64 64
  %17 = load i32, ptr %16, align 4, !tbaa !66
  %.not.not36 = icmp eq i32 %17, -1
  br i1 %.not.not36, label %.critedge, label %.lr.ph

.lr.ph:                                           ; preds = %6
  %18 = load i32, ptr %10, align 8, !tbaa !118
  %19 = icmp eq i32 %17, %18
  br i1 %19, label %._crit_edge45, label %.lr.ph44

20:                                               ; preds = %.lr.ph44
  %21 = icmp eq i32 %25, %18
  br i1 %21, label %._crit_edge45, label %.lr.ph44, !llvm.loop !192

.lr.ph44:                                         ; preds = %.lr.ph, %20
  %22 = phi i32 [ %25, %20 ], [ %17, %.lr.ph ]
  %23 = sext i32 %22 to i64
  %24 = getelementptr inbounds %struct.b2ChainShape, ptr %.val34, i64 %23, i32 2
  %25 = load i32, ptr %24, align 4, !tbaa !66
  %.not.not = icmp eq i32 %25, -1
  br i1 %.not.not, label %.critedge, label %20, !llvm.loop !192

._crit_edge45:                                    ; preds = %20, %.lr.ph
  %.037.lcssa = phi ptr [ %16, %.lr.ph ], [ %24, %20 ]
  %26 = getelementptr inbounds nuw i8, ptr %10, i64 8
  %27 = load i32, ptr %26, align 8, !tbaa !124
  store i32 %27, ptr %.037.lcssa, align 4, !tbaa !66
  %28 = getelementptr inbounds nuw i8, ptr %10, i64 12
  %29 = load i32, ptr %28, align 4, !tbaa !143
  %30 = icmp sgt i32 %29, 0
  br i1 %30, label %.lr.ph39, label %._crit_edge

.lr.ph39:                                         ; preds = %._crit_edge45
  %31 = getelementptr inbounds nuw i8, ptr %10, i64 24
  %32 = getelementptr inbounds nuw i8, ptr %4, i64 1256
  %wide.trip.count = zext nneg i32 %29 to i64
  br label %44

._crit_edge.loopexit:                             ; preds = %44
  %.pre = load i32, ptr %28, align 4, !tbaa !143
  br label %._crit_edge

._crit_edge:                                      ; preds = %._crit_edge.loopexit, %._crit_edge45
  %33 = phi i32 [ %.pre, %._crit_edge.loopexit ], [ %29, %._crit_edge45 ]
  %34 = getelementptr inbounds nuw i8, ptr %10, i64 24
  %35 = load ptr, ptr %34, align 8, !tbaa !144
  %36 = shl i32 %33, 2
  tail call void @b2Free(ptr noundef %35, i32 noundef %36) #10
  store ptr null, ptr %34, align 8, !tbaa !144
  %37 = getelementptr inbounds nuw i8, ptr %10, i64 32
  %38 = load ptr, ptr %37, align 8, !tbaa !130
  %39 = getelementptr inbounds nuw i8, ptr %10, i64 16
  %40 = load i32, ptr %39, align 8, !tbaa !129
  %41 = mul i32 %40, 24
  tail call void @b2Free(ptr noundef %38, i32 noundef %41) #10
  store ptr null, ptr %37, align 8, !tbaa !130
  %42 = getelementptr inbounds nuw i8, ptr %4, i64 1232
  %43 = load i32, ptr %10, align 8, !tbaa !118
  tail call void @b2FreeId(ptr noundef nonnull %42, i32 noundef %43) #10
  store i32 -1, ptr %10, align 8, !tbaa !118
  tail call void @b2ValidateSolverSets(ptr noundef nonnull %4) #10
  br label %.critedge

44:                                               ; preds = %.lr.ph39, %44
  %indvars.iv = phi i64 [ 0, %.lr.ph39 ], [ %indvars.iv.next, %44 ]
  %45 = load ptr, ptr %31, align 8, !tbaa !144
  %46 = getelementptr inbounds nuw i32, ptr %45, i64 %indvars.iv
  %47 = load i32, ptr %46, align 4, !tbaa !66
  %.val = load ptr, ptr %32, align 8, !tbaa !14
  %48 = sext i32 %47 to i64
  %49 = getelementptr inbounds %struct.b2Shape, ptr %.val, i64 %48
  tail call fastcc void @b2DestroyShapeInternal(ptr noundef %4, ptr noundef %49, ptr noundef %15)
  %indvars.iv.next = add nuw nsw i64 %indvars.iv, 1
  %exitcond.not = icmp eq i64 %indvars.iv.next, %wide.trip.count
  br i1 %exitcond.not, label %._crit_edge.loopexit, label %44, !llvm.loop !193

.critedge:                                        ; preds = %.lr.ph44, %6, %._crit_edge, %1
  ret void
}